target datalayout = "e-m:e-p270:32:32-p271:32:32-p272:64:64-i64:64-i128:128-f80:128-n8:16:32:64-S128"
target triple = "x86_64-pc-linux-gnu"

%"struct.cv::GRunArg" = type { %"class.cv::util::variant", %"class.std::unordered_map" }
%"class.cv::util::variant" = type { i64, [1 x %"union.std::aligned_storage<96, 8>::type"] }
%"union.std::aligned_storage<96, 8>::type" = type { [96 x i8] }
%"class.std::unordered_map" = type { %"class.std::_Hashtable" }
%"class.std::_Hashtable" = type { ptr, i64, %"struct.std::__detail::_Hash_node_base", i64, %"struct.std::__detail::_Prime_rehash_policy", ptr }
%"struct.std::__detail::_Hash_node_base" = type { ptr }
%"struct.std::__detail::_Prime_rehash_policy" = type { float, i64 }
%"struct.std::array.42" = type { [8 x ptr] }
%"struct.std::array" = type { [8 x ptr] }

; Function Attrs: mustprogress nounwind uwtable
define linkonce_odr hidden noundef nonnull align 8 dereferenceable(8) ptr @_ZNSt14__array_traitsIPFvPNSt15aligned_storageILm96ELm8EE4typeEPKS2_ELm8EE6_S_refERA8_KS7_m(ptr noundef nonnull align 8 dereferenceable(64) %0, i64 noundef %1) #4 comdat align 2 {
  %3 = alloca ptr, align 8
  %4 = alloca i64, align 8
  store ptr %0, ptr %3, align 8, !tbaa !253
  store i64 %1, ptr %4, align 8, !tbaa !116
  %5 = load ptr, ptr %3, align 8, !tbaa !253
  %6 = load i64, ptr %4, align 8, !tbaa !116
  %7 = getelementptr inbounds nuw [8 x ptr], ptr %5, i64 0, i64 %6
  ret ptr %7
}

; Function Attrs: mustprogress nounwind uwtable
define linkonce_odr hidden noundef nonnull align 8 dereferenceable(8) ptr @_ZNSt14__array_traitsIPFvPNSt15aligned_storageILm96ELm8EE4typeEELm8EE6_S_refERA8_KS5_m(ptr noundef nonnull align 8 dereferenceable(64) %0, i64 noundef %1) #4 comdat align 2 {
  %3 = alloca ptr, align 8
  %4 = alloca i64, align 8
  store ptr %0, ptr %3, align 8, !tbaa !253
  store i64 %1, ptr %4, align 8, !tbaa !116
  %5 = load ptr, ptr %3, align 8, !tbaa !253
  %6 = load i64, ptr %4, align 8, !tbaa !116
  %7 = getelementptr inbounds nuw [8 x ptr], ptr %5, i64 0, i64 %6
  ret ptr %7
}

; Function Attrs: mustprogress nounwind uwtable
define linkonce_odr hidden noundef nonnull align 8 dereferenceable(56) ptr @_ZNSt10_HashtableINSt7__cxx1112basic_stringIcSt11char_traitsIcESaIcEEESt4pairIKS5_N2cv4util3anyEESaISB_ENSt8__detail10_Select1stESt8equal_toIS5_ESt4hashIS5_ENSD_18_Mod_range_hashingENSD_20_Default_ranged_hashENSD_20_Prime_rehash_policyENSD_17_Hashtable_traitsILb1ELb0ELb1EEEEaSEOSO_(ptr noundef nonnull align 8 dereferenceable(56) %0, ptr noundef nonnull align 8 dereferenceable(56) %1) #4 comdat align 2 personality ptr @__gxx_personality_v0 {
  %3 = alloca ptr, align 8
  %4 = alloca ptr, align 8
  %5 = alloca i8, align 1
  store ptr %0, ptr %3, align 8, !tbaa !80
  store ptr %1, ptr %4, align 8, !tbaa !80
  %6 = load ptr, ptr %3, align 8
  call void @llvm.lifetime.start.p0(i64 1, ptr %5) #3
  store i8 1, ptr %5, align 1, !tbaa !206
  %7 = load ptr, ptr %4, align 8, !tbaa !80
  invoke void @_ZNSt10_HashtableINSt7__cxx1112basic_stringIcSt11char_traitsIcESaIcEEESt4pairIKS5_N2cv4util3anyEESaISB_ENSt8__detail10_Select1stESt8equal_toIS5_ESt4hashIS5_ENSD_18_Mod_range_hashingENSD_20_Default_ranged_hashENSD_20_Prime_rehash_policyENSD_17_Hashtable_traitsILb1ELb0ELb1EEEE14_M_move_assignEOSO_St17integral_constantIbLb1EE(ptr noundef nonnull align 8 dereferenceable(56) %6, ptr noundef nonnull align 8 dereferenceable(56) %7)
          to label %8 unwind label %9

8:                                                ; preds = %2
  call void @llvm.lifetime.end.p0(i64 1, ptr %5) #3
  ret ptr %6

9:                                                ; preds = %2
  %10 = landingpad { ptr, i32 }
          catch ptr null
  %11 = extractvalue { ptr, i32 } %10, 0
  call void @__clang_call_terminate(ptr %11) #20
  unreachable
}

; Function Attrs: mustprogress nounwind uwtable
define linkonce_odr hidden void @_ZN2cv4util7variantIJNS_4UMatENS_4RMatESt10shared_ptrINS_4gapi3wip13IStreamSourceEENS_3MatENS_7Scalar_IdEENS_6detail9VectorRefENSC_9OpaqueRefENS_10MediaFrameEEE5cpyrsEv(ptr dead_on_unwind noalias writable sret(%"struct.std::array.42") align 8 %0) #4 comdat align 2 {
  %2 = getelementptr inbounds nuw %"struct.std::array.42", ptr %0, i32 0, i32 0
  call void @llvm.memcpy.p0.p0.i64(ptr align 8 %2, ptr align 8 @constinit.2, i64 64, i1 false), !tbaa.struct !238
  ret void
}

; Function Attrs: mustprogress nounwind uwtable
define linkonce_odr hidden noundef nonnull align 8 dereferenceable(8) ptr @_ZNSt5arrayIPFvPNSt15aligned_storageILm96ELm8EE4typeEPKS2_ELm8EEixEm(ptr noundef nonnull align 8 dereferenceable(64) %0, i64 noundef %1) #4 comdat align 2 {
  %3 = alloca ptr, align 8
  %4 = alloca i64, align 8
  store ptr %0, ptr %3, align 8, !tbaa !254
  store i64 %1, ptr %4, align 8, !tbaa !116
  %5 = load ptr, ptr %3, align 8
  %6 = getelementptr inbounds nuw %"struct.std::array.42", ptr %5, i32 0, i32 0
  %7 = load i64, ptr %4, align 8, !tbaa !116
  %8 = call noundef nonnull align 8 dereferenceable(8) ptr @_ZNSt14__array_traitsIPFvPNSt15aligned_storageILm96ELm8EE4typeEPKS2_ELm8EE6_S_refERA8_KS7_m(ptr noundef nonnull align 8 dereferenceable(64) %6, i64 noundef %7) #3
  ret ptr %8
}

; Function Attrs: mustprogress nounwind uwtable
define linkonce_odr hidden void @_ZN2cv4util7variantIJNS_4UMatENS_4RMatESt10shared_ptrINS_4gapi3wip13IStreamSourceEENS_3MatENS_7Scalar_IdEENS_6detail9VectorRefENSC_9OpaqueRefENS_10MediaFrameEEE5cctrsEv(ptr dead_on_unwind noalias writable sret(%"struct.std::array.42") align 8 %0) #4 comdat align 2 {
  %2 = getelementptr inbounds nuw %"struct.std::array.42", ptr %0, i32 0, i32 0
  call void @llvm.memcpy.p0.p0.i64(ptr align 8 %2, ptr align 8 @constinit.1, i64 64, i1 false), !tbaa.struct !238
  ret void
}

; Function Attrs: mustprogress nounwind uwtable
define linkonce_odr hidden noundef nonnull align 8 dereferenceable(8) ptr @_ZNSt5arrayIPFvPNSt15aligned_storageILm96ELm8EE4typeEELm8EEixEm(ptr noundef nonnull align 8 dereferenceable(64) %0, i64 noundef %1) #4 comdat align 2 {
  %3 = alloca ptr, align 8
  %4 = alloca i64, align 8
  store ptr %0, ptr %3, align 8, !tbaa !239
  store i64 %1, ptr %4, align 8, !tbaa !116
  %5 = load ptr, ptr %3, align 8
  %6 = getelementptr inbounds nuw %"struct.std::array", ptr %5, i32 0, i32 0
  %7 = load i64, ptr %4, align 8, !tbaa !116
  %8 = call noundef nonnull align 8 dereferenceable(8) ptr @_ZNSt14__array_traitsIPFvPNSt15aligned_storageILm96ELm8EE4typeEELm8EE6_S_refERA8_KS5_m(ptr noundef nonnull align 8 dereferenceable(64) %6, i64 noundef %7) #3
  ret ptr %8
}

; Function Attrs: mustprogress nounwind uwtable
define linkonce_odr hidden void @_ZN2cv4util7variantIJNS_4UMatENS_4RMatESt10shared_ptrINS_4gapi3wip13IStreamSourceEENS_3MatENS_7Scalar_IdEENS_6detail9VectorRefENSC_9OpaqueRefENS_10MediaFrameEEE5dtorsEv(ptr dead_on_unwind noalias writable sret(%"struct.std::array") align 8 %0) #4 comdat align 2 {
  %2 = getelementptr inbounds nuw %"struct.std::array", ptr %0, i32 0, i32 0
  call void @llvm.memcpy.p0.p0.i64(ptr align 8 %2, ptr align 8 @constinit, i64 64, i1 false), !tbaa.struct !238
  ret void
}

; Function Attrs: mustprogress nounwind uwtable
define linkonce_odr hidden noundef nonnull align 8 dereferenceable(56) ptr @_ZNSt13unordered_mapINSt7__cxx1112basic_stringIcSt11char_traitsIcESaIcEEEN2cv4util3anyESt4hashIS5_ESt8equal_toIS5_ESaISt4pairIKS5_S8_EEEaSEOSH_(ptr noundef nonnull align 8 dereferenceable(56) %0, ptr noundef nonnull align 8 dereferenceable(56) %1) #4 comdat align 2 {
  %3 = alloca ptr, align 8
  %4 = alloca ptr, align 8
  store ptr %0, ptr %3, align 8, !tbaa !13
  store ptr %1, ptr %4, align 8, !tbaa !13
  %5 = load ptr, ptr %3, align 8
  %6 = getelementptr inbounds nuw %"class.std::unordered_map", ptr %5, i32 0, i32 0
  %7 = load ptr, ptr %4, align 8, !tbaa !13
  %8 = getelementptr inbounds nuw %"class.std::unordered_map", ptr %7, i32 0, i32 0
  %9 = call noundef nonnull align 8 dereferenceable(56) ptr @_ZNSt10_HashtableINSt7__cxx1112basic_stringIcSt11char_traitsIcESaIcEEESt4pairIKS5_N2cv4util3anyEESaISB_ENSt8__detail10_Select1stESt8equal_toIS5_ESt4hashIS5_ENSD_18_Mod_range_hashingENSD_20_Default_ranged_hashENSD_20_Prime_rehash_policyENSD_17_Hashtable_traitsILb1ELb0ELb1EEEEaSEOSO_(ptr noundef nonnull align 8 dereferenceable(56) %6, ptr noundef nonnull align 8 dereferenceable(56) %8) #3
  ret ptr %5
}

; Function Attrs: mustprogress uwtable
define linkonce_odr hidden noundef nonnull align 8 dereferenceable(104) ptr @_ZN2cv4util7variantIJNS_4UMatENS_4RMatESt10shared_ptrINS_4gapi3wip13IStreamSourceEENS_3MatENS_7Scalar_IdEENS_6detail9VectorRefENSC_9OpaqueRefENS_10MediaFrameEEEaSERKSG_(ptr noundef nonnull align 8 dereferenceable(104) %0, ptr noundef nonnull align 8 dereferenceable(104) %1) #5 comdat align 2 {
  %3 = alloca ptr, align 8
  %4 = alloca ptr, align 8
  %5 = alloca %"struct.std::array", align 8
  %6 = alloca %"struct.std::array.42", align 8
  %7 = alloca %"struct.std::array.42", align 8
  store ptr %0, ptr %3, align 8, !tbaa !8
  store ptr %1, ptr %4, align 8, !tbaa !8
  %8 = load ptr, ptr %3, align 8
  %9 = getelementptr inbounds nuw %"class.cv::util::variant", ptr %8, i32 0, i32 0
  %10 = load i64, ptr %9, align 8, !tbaa !10
  %11 = load ptr, ptr %4, align 8, !tbaa !8
  %12 = getelementptr inbounds nuw %"class.cv::util::variant", ptr %11, i32 0, i32 0
  %13 = load i64, ptr %12, align 8, !tbaa !10
  %14 = icmp ne i64 %10, %13
  br i1 %14, label %15, label %36

15:                                               ; preds = %2
  call void @llvm.lifetime.start.p0(i64 64, ptr %5) #3
  call void @_ZN2cv4util7variantIJNS_4UMatENS_4RMatESt10shared_ptrINS_4gapi3wip13IStreamSourceEENS_3MatENS_7Scalar_IdEENS_6detail9VectorRefENSC_9OpaqueRefENS_10MediaFrameEEE5dtorsEv(ptr dead_on_unwind writable sret(%"struct.std::array") align 8 %5)
  %16 = getelementptr inbounds nuw %"class.cv::util::variant", ptr %8, i32 0, i32 0
  %17 = load i64, ptr %16, align 8, !tbaa !10
  %18 = call noundef nonnull align 8 dereferenceable(8) ptr @_ZNSt5arrayIPFvPNSt15aligned_storageILm96ELm8EE4typeEELm8EEixEm(ptr noundef nonnull align 8 dereferenceable(64) %5, i64 noundef %17) #3
  %19 = load ptr, ptr %18, align 8, !tbaa !15
  %20 = getelementptr inbounds nuw %"class.cv::util::variant", ptr %8, i32 0, i32 1
  %21 = getelementptr inbounds [1 x %"union.std::aligned_storage<96, 8>::type"], ptr %20, i64 0, i64 0
  call void %19(ptr noundef %21)
  call void @llvm.lifetime.end.p0(i64 64, ptr %5) #3
  call void @llvm.lifetime.start.p0(i64 64, ptr %6) #3
  call void @_ZN2cv4util7variantIJNS_4UMatENS_4RMatESt10shared_ptrINS_4gapi3wip13IStreamSourceEENS_3MatENS_7Scalar_IdEENS_6detail9VectorRefENSC_9OpaqueRefENS_10MediaFrameEEE5cctrsEv(ptr dead_on_unwind writable sret(%"struct.std::array.42") align 8 %6)
  %22 = load ptr, ptr %4, align 8, !tbaa !8
  %23 = getelementptr inbounds nuw %"class.cv::util::variant", ptr %22, i32 0, i32 0
  %24 = load i64, ptr %23, align 8, !tbaa !10
  %25 = call noundef nonnull align 8 dereferenceable(8) ptr @_ZNSt5arrayIPFvPNSt15aligned_storageILm96ELm8EE4typeEPKS2_ELm8EEixEm(ptr noundef nonnull align 8 dereferenceable(64) %6, i64 noundef %24) #3
  %26 = load ptr, ptr %25, align 8, !tbaa !15
  %27 = getelementptr inbounds nuw %"class.cv::util::variant", ptr %8, i32 0, i32 1
  %28 = getelementptr inbounds [1 x %"union.std::aligned_storage<96, 8>::type"], ptr %27, i64 0, i64 0
  %29 = load ptr, ptr %4, align 8, !tbaa !8
  %30 = getelementptr inbounds nuw %"class.cv::util::variant", ptr %29, i32 0, i32 1
  %31 = getelementptr inbounds [1 x %"union.std::aligned_storage<96, 8>::type"], ptr %30, i64 0, i64 0
  call void %26(ptr noundef %28, ptr noundef %31)
  call void @llvm.lifetime.end.p0(i64 64, ptr %6) #3
  %32 = load ptr, ptr %4, align 8, !tbaa !8
  %33 = getelementptr inbounds nuw %"class.cv::util::variant", ptr %32, i32 0, i32 0
  %34 = load i64, ptr %33, align 8, !tbaa !10
  %35 = getelementptr inbounds nuw %"class.cv::util::variant", ptr %8, i32 0, i32 0
  store i64 %34, ptr %35, align 8, !tbaa !10
  br label %47

36:                                               ; preds = %2
  call void @llvm.lifetime.start.p0(i64 64, ptr %7) #3
  call void @_ZN2cv4util7variantIJNS_4UMatENS_4RMatESt10shared_ptrINS_4gapi3wip13IStreamSourceEENS_3MatENS_7Scalar_IdEENS_6detail9VectorRefENSC_9OpaqueRefENS_10MediaFrameEEE5cpyrsEv(ptr dead_on_unwind writable sret(%"struct.std::array.42") align 8 %7)
  %37 = load ptr, ptr %4, align 8, !tbaa !8
  %38 = getelementptr inbounds nuw %"class.cv::util::variant", ptr %37, i32 0, i32 0
  %39 = load i64, ptr %38, align 8, !tbaa !10
  %40 = call noundef nonnull align 8 dereferenceable(8) ptr @_ZNSt5arrayIPFvPNSt15aligned_storageILm96ELm8EE4typeEPKS2_ELm8EEixEm(ptr noundef nonnull align 8 dereferenceable(64) %7, i64 noundef %39) #3
  %41 = load ptr, ptr %40, align 8, !tbaa !15
  %42 = getelementptr inbounds nuw %"class.cv::util::variant", ptr %8, i32 0, i32 1
  %43 = getelementptr inbounds [1 x %"union.std::aligned_storage<96, 8>::type"], ptr %42, i64 0, i64 0
  %44 = load ptr, ptr %4, align 8, !tbaa !8
  %45 = getelementptr inbounds nuw %"class.cv::util::variant", ptr %44, i32 0, i32 1
  %46 = getelementptr inbounds [1 x %"union.std::aligned_storage<96, 8>::type"], ptr %45, i64 0, i64 0
  call void %41(ptr noundef %43, ptr noundef %46)
  call void @llvm.lifetime.end.p0(i64 64, ptr %7) #3
  br label %47

47:                                               ; preds = %36, %15
  ret ptr %8
}

; Function Attrs: mustprogress uwtable
define noundef nonnull align 8 dereferenceable(160) ptr @_ZN2cv7GRunArgaSEOS0_(ptr noundef nonnull align 8 dereferenceable(160) %0, ptr noundef nonnull align 8 dereferenceable(160) %1) #5 align 2 {
  %3 = alloca ptr, align 8
  %4 = alloca ptr, align 8
  store ptr %0, ptr %3, align 8, !tbaa !3
  store ptr %1, ptr %4, align 8, !tbaa !3
  %5 = load ptr, ptr %3, align 8
  %6 = load ptr, ptr %4, align 8, !tbaa !3
  %7 = call noundef nonnull align 8 dereferenceable(104) ptr @_ZN2cv4util7variantIJNS_4UMatENS_4RMatESt10shared_ptrINS_4gapi3wip13IStreamSourceEENS_3MatENS_7Scalar_IdEENS_6detail9VectorRefENSC_9OpaqueRefENS_10MediaFrameEEEaSERKSG_(ptr noundef nonnull align 8 dereferenceable(104) %5, ptr noundef nonnull align 8 dereferenceable(104) %6)
  %8 = load ptr, ptr %4, align 8, !tbaa !3
  %9 = getelementptr inbounds nuw %"struct.cv::GRunArg", ptr %8, i32 0, i32 1
  %10 = getelementptr inbounds nuw %"struct.cv::GRunArg", ptr %5, i32 0, i32 1
  %11 = call noundef nonnull align 8 dereferenceable(56) ptr @_ZNSt13unordered_mapINSt7__cxx1112basic_stringIcSt11char_traitsIcESaIcEEEN2cv4util3anyESt4hashIS5_ESt8equal_toIS5_ESaISt4pairIKS5_S8_EEEaSEOSH_(ptr noundef nonnull align 8 dereferenceable(56) %10, ptr noundef nonnull align 8 dereferenceable(56) %9) #3
  ret ptr %5
}